target datalayout = "e-m:e-p270:32:32-p271:32:32-p272:64:64-i64:64-i128:128-f80:128-n8:16:32:64-S128"
target triple = "x86_64-pc-linux-gnu"

; Function Attrs: nounwind uwtable
define dso_local void @x64_classify_post_merge(i64 noundef %0, ptr noundef %1, ptr noundef %2) #0 {
  %4 = alloca i64, align 8
  %5 = alloca ptr, align 8
  %6 = alloca ptr, align 8
  store i64 %0, ptr %4, align 8
  store ptr %1, ptr %5, align 8
  store ptr %2, ptr %6, align 8
  %7 = load ptr, ptr %6, align 8
  %8 = load i32, ptr %7, align 4
  %9 = icmp eq i32 %8, 1
  br i1 %9, label %10, label %11

10:                                               ; preds = %3
  br label %38

11:                                               ; preds = %3
  %12 = load i64, ptr %4, align 8
  %13 = icmp ugt i64 %12, 16
  br i1 %13, label %14, label %23

14:                                               ; preds = %11
  %15 = load ptr, ptr %5, align 8
  %16 = load i32, ptr %15, align 4
  %17 = icmp ne i32 %16, 3
  br i1 %17, label %22, label %18

18:                                               ; preds = %14
  %19 = load ptr, ptr %6, align 8
  %20 = load i32, ptr %19, align 4
  %21 = icmp ne i32 %20, 4
  br i1 %21, label %22, label %23

22:                                               ; preds = %18, %14
  br label %38

23:                                               ; preds = %18, %11
  %24 = load ptr, ptr %6, align 8
  %25 = load i32, ptr %24, align 4
  %26 = icmp eq i32 %25, 4
  br i1 %26, label %27, label %37

27:                                               ; preds = %23
  %28 = load ptr, ptr %5, align 8
  %29 = load i32, ptr %28, align 4
  %30 = icmp ne i32 %29, 3
  br i1 %30, label %31, label %37

31:                                               ; preds = %27
  %32 = load ptr, ptr %5, align 8
  %33 = load i32, ptr %32, align 4
  %34 = icmp ne i32 %33, 4
  br i1 %34, label %35, label %37

35:                                               ; preds = %31
  %36 = load ptr, ptr %6, align 8
  store i32 3, ptr %36, align 4
  br label %37

37:                                               ; preds = %35, %31, %27, %23
  br label %40

38:                                               ; preds = %22, %10
  %39 = load ptr, ptr %5, align 8
  store i32 1, ptr %39, align 4
  br label %40

40:                                               ; preds = %38, %37
  ret void
}