; Function Attrs: mustprogress nofree norecurse nosync nounwind willreturn memory(argmem: readwrite) uwtable
define dso_local void @x64_classify_post_merge(i64 noundef %0, ptr nocapture noundef %1, ptr nocapture noundef %2) local_unnamed_addr #0 {
  %4 = load i32, ptr %2, align 4
  %5 = icmp eq i32 %4, 1
  br i1 %5, label %15, label %6

6:                                                ; preds = %3
  %7 = icmp ugt i64 %0, 16
  br i1 %7, label %8, label %10

8:                                                ; preds = %6
  %9 = load i32, ptr %1, align 4
  %.not = icmp eq i32 %9, 3
  %.not9 = icmp eq i32 %4, 4
  %or.cond = and i1 %.not9, %.not
  br i1 %or.cond, label %.thread.thread, label %15

10:                                               ; preds = %6
  %11 = icmp eq i32 %4, 4
  br i1 %11, label %.thread, label %.thread.thread

.thread:                                          ; preds = %10
  %.pre = load i32, ptr %1, align 4
  %12 = add i32 %.pre, -3
  %13 = icmp ult i32 %12, 2
  br i1 %13, label %.thread.thread, label %14

14:                                               ; preds = %.thread
  store i32 3, ptr %2, align 4
  br label %.thread.thread

15:                                               ; preds = %8, %3
  store i32 1, ptr %1, align 4
  br label %.thread.thread

.thread.thread:                                   ; preds = %8, %.thread, %10, %14, %15
  ret void
}